target datalayout = "e-m:e-p270:32:32-p271:32:32-p272:64:64-i64:64-i128:128-f80:128-n8:16:32:64-S128"
target triple = "x86_64-unknown-linux-gnu"

; Function Attrs: nounwind uwtable
define i32 @stb__clex_iswhite(i32 noundef %x) #0 {
entry:
  %x.addr = alloca i32, align 4
  store i32 %x, ptr %x.addr, align 4
  %0 = load i32, ptr %x.addr, align 4
  %cmp = icmp eq i32 %0, 32
  br i1 %cmp, label %lor.end, label %lor.lhs.false

lor.lhs.false:                                    ; preds = %entry
  %1 = load i32, ptr %x.addr, align 4
  %cmp1 = icmp eq i32 %1, 9
  br i1 %cmp1, label %lor.end, label %lor.lhs.false2

lor.lhs.false2:                                   ; preds = %lor.lhs.false
  %2 = load i32, ptr %x.addr, align 4
  %cmp3 = icmp eq i32 %2, 13
  br i1 %cmp3, label %lor.end, label %lor.lhs.false4

lor.lhs.false4:                                   ; preds = %lor.lhs.false2
  %3 = load i32, ptr %x.addr, align 4
  %cmp5 = icmp eq i32 %3, 10
  br i1 %cmp5, label %lor.end, label %lor.rhs

lor.rhs:                                          ; preds = %lor.lhs.false4
  %4 = load i32, ptr %x.addr, align 4
  %cmp6 = icmp eq i32 %4, 12
  br label %lor.end

lor.end:                                          ; preds = %lor.rhs, %lor.lhs.false4, %lor.lhs.false2, %lor.lhs.false, %entry
  %5 = phi i1 [ true, %lor.lhs.false4 ], [ true, %lor.lhs.false2 ], [ true, %lor.lhs.false ], [ true, %entry ], [ %cmp6, %lor.rhs ]
  %lor.ext = zext i1 %5 to i32
  ret i32 %lor.ext
}