; Function Attrs: mustprogress nofree norecurse nosync nounwind willreturn memory(none) uwtable
define range(i32 0, 2) i32 @stb__clex_iswhite(i32 noundef %x) local_unnamed_addr #2 {
entry:
  switch i32 %x, label %lor.rhs [
    i32 32, label %lor.end
    i32 13, label %lor.end
    i32 10, label %lor.end
    i32 9, label %lor.end
  ]

lor.rhs:                                          ; preds = %entry
  %cmp6 = icmp eq i32 %x, 12
  %0 = zext i1 %cmp6 to i32
  br label %lor.end

lor.end:                                          ; preds = %entry, %entry, %entry, %entry, %lor.rhs
  %lor.ext = phi i32 [ 1, %entry ], [ %0, %lor.rhs ], [ 1, %entry ], [ 1, %entry ], [ 1, %entry ]
  ret i32 %lor.ext
}